; Function Attrs: mustprogress uwtable
define void @_ZNK32pxrInternal_v0_24__pxrReserved__7SdfPath11GetPrefixesEv(ptr dead_on_unwind noalias writable sret(%"class.std::vector.6") align 8 %0, ptr nocapture noundef nonnull readonly align 4 dereferenceable(8) %1) local_unnamed_addr #0 align 2 personality ptr @__gxx_personality_v0 {
  tail call void @llvm.memset.p0.i64(ptr noundef nonnull align 8 dereferenceable(24) %0, i8 0, i64 24, i1 false)
  invoke void @_ZNK32pxrInternal_v0_24__pxrReserved__7SdfPath11GetPrefixesEPSt6vectorIS0_SaIS0_EEm(ptr noundef nonnull readonly align 4 dereferenceable(8) %1, ptr noundef nonnull %0, i64 noundef 0)
          to label %_ZNK32pxrInternal_v0_24__pxrReserved__7SdfPath11GetPrefixesEPSt6vectorIS0_SaIS0_EE.exit unwind label %3

3:                                                ; preds = %2
  %4 = landingpad { ptr, i32 }
          cleanup
  tail call void @_ZNSt6vectorIN32pxrInternal_v0_24__pxrReserved__7SdfPathESaIS1_EED2Ev(ptr noundef nonnull align 8 dereferenceable(24) %0) #20
  resume { ptr, i32 } %4

_ZNK32pxrInternal_v0_24__pxrReserved__7SdfPath11GetPrefixesEPSt6vectorIS0_SaIS0_EE.exit: ; preds = %2
  ret void
}